; Function Attrs: mustprogress uwtable
define hidden noundef i32 @_ZNK5ceres8internal7Program22NumEffectiveParametersEv(ptr noundef nonnull readonly align 8 captures(none) dereferenceable(56) %0) local_unnamed_addr #6 align 2 {
  %2 = load ptr, ptr %0, align 8, !tbaa !19
  %3 = getelementptr inbounds nuw i8, ptr %0, i64 8
  %4 = load ptr, ptr %3, align 8, !tbaa !19
  %.not8 = icmp eq ptr %2, %4
  br i1 %.not8, label %._crit_edge, label %.lr.ph

._crit_edge:                                      ; preds = %_ZNK5ceres8internal14ParameterBlock11TangentSizeEv.exit, %1
  %.0.lcssa = phi i32 [ 0, %1 ], [ %18, %_ZNK5ceres8internal14ParameterBlock11TangentSizeEv.exit ]
  ret i32 %.0.lcssa

.lr.ph:                                           ; preds = %1, %_ZNK5ceres8internal14ParameterBlock11TangentSizeEv.exit
  %.010 = phi i32 [ %18, %_ZNK5ceres8internal14ParameterBlock11TangentSizeEv.exit ], [ 0, %1 ]
  %.sroa.05.09 = phi ptr [ %19, %_ZNK5ceres8internal14ParameterBlock11TangentSizeEv.exit ], [ %2, %1 ]
  %5 = load ptr, ptr %.sroa.05.09, align 8, !tbaa !20
  %6 = getelementptr inbounds nuw i8, ptr %5, i64 16
  %7 = load ptr, ptr %6, align 8, !tbaa !43
  %8 = icmp eq ptr %7, null
  br i1 %8, label %9, label %12

9:                                                ; preds = %.lr.ph
  %10 = getelementptr inbounds nuw i8, ptr %5, i64 8
  %11 = load i32, ptr %10, align 8, !tbaa !44
  br label %_ZNK5ceres8internal14ParameterBlock11TangentSizeEv.exit

12:                                               ; preds = %.lr.ph
  %13 = load ptr, ptr %7, align 8, !tbaa !45
  %14 = getelementptr inbounds nuw i8, ptr %13, i64 24
  %15 = load ptr, ptr %14, align 8
  %16 = tail call noundef i32 %15(ptr noundef nonnull align 8 dereferenceable(8) %7)
  br label %_ZNK5ceres8internal14ParameterBlock11TangentSizeEv.exit

_ZNK5ceres8internal14ParameterBlock11TangentSizeEv.exit: ; preds = %9, %12
  %17 = phi i32 [ %11, %9 ], [ %16, %12 ]
  %18 = add nsw i32 %17, %.010
  %19 = getelementptr inbounds nuw i8, ptr %.sroa.05.09, i64 8
  %.not = icmp eq ptr %19, %4
  br i1 %.not, label %._crit_edge, label %.lr.ph
}